target datalayout = "e-m:e-p270:32:32-p271:32:32-p272:64:64-i64:64-i128:128-f80:128-n8:16:32:64-S128"
target triple = "x86_64-pc-linux-gnu"

; Function Attrs: nounwind uwtable
define hidden i32 @png_fixed(ptr noalias noundef %0, double noundef %1, ptr noundef %2) #0 {
  %4 = alloca ptr, align 8
  %5 = alloca double, align 8
  %6 = alloca ptr, align 8
  %7 = alloca double, align 8
  store ptr %0, ptr %4, align 8
  store double %1, ptr %5, align 8
  store ptr %2, ptr %6, align 8
  %8 = load double, ptr %5, align 8
  %9 = call double @llvm.fmuladd.f64(double 1.000000e+05, double %8, double 5.000000e-01)
  %10 = call double @llvm.floor.f64(double %9)
  store double %10, ptr %7, align 8
  %11 = load double, ptr %7, align 8
  %12 = fcmp ogt double %11, 0x41DFFFFFFFC00000
  br i1 %12, label %16, label %13

13:                                               ; preds = %3
  %14 = load double, ptr %7, align 8
  %15 = fcmp olt double %14, 0xC1E0000000000000
  br i1 %15, label %16, label %19

16:                                               ; preds = %13, %3
  %17 = load ptr, ptr %4, align 8
  %18 = load ptr, ptr %6, align 8
  call void @png_fixed_error(ptr noundef %17, ptr noundef %18) #10
  unreachable

19:                                               ; preds = %13
  %20 = load double, ptr %7, align 8
  %21 = fptosi double %20 to i32
  ret i32 %21
}